; Function Attrs: mustprogress uwtable
define noundef zeroext i1 @_ZN32pxrInternal_v0_24__pxrReserved__22UsdShadeConnectableAPI10CanConnectERKNS_13UsdShadeInputERKNS_12UsdAttributeE(ptr noundef nonnull align 8 dereferenceable(32) %0, ptr noundef nonnull align 8 dereferenceable(32) %1) local_unnamed_addr #3 align 2 personality ptr @__gxx_personality_v0 {
  %3 = alloca %"class.std::__cxx11::basic_string", align 8
  %4 = alloca %"class.pxrInternal_v0_24__pxrReserved__::UsdPrim", align 8
  call void @_ZNSt7__cxx1112basic_stringIcSt11char_traitsIcESaIcEEC1Ev(ptr noundef nonnull align 8 dereferenceable(32) %3) #18
  %5 = invoke fastcc noundef nonnull align 8 dereferenceable(73) ptr @_ZN32pxrInternal_v0_24__pxrReserved__12_GLOBAL__N_117_BehaviorRegistry11GetInstanceEv()
          to label %6 unwind label %49

6:                                                ; preds = %2
  %7 = getelementptr inbounds nuw i8, ptr %0, i64 8
  %8 = getelementptr inbounds nuw i8, ptr %0, i64 16
  invoke void @_ZN32pxrInternal_v0_24__pxrReserved__9UsdObjectC2ERKNS_18Usd_PrimDataHandleERKNS_7SdfPathE(ptr noundef nonnull align 8 dereferenceable(32) %4, ptr noundef nonnull align 8 dereferenceable(8) %7, ptr noundef nonnull align 4 dereferenceable(8) %8)
          to label %_ZNK32pxrInternal_v0_24__pxrReserved__13UsdShadeInput7GetPrimEv.exit unwind label %49

_ZNK32pxrInternal_v0_24__pxrReserved__13UsdShadeInput7GetPrimEv.exit: ; preds = %6
  %9 = invoke fastcc noundef ptr @_ZN32pxrInternal_v0_24__pxrReserved__12_GLOBAL__N_117_BehaviorRegistry11GetBehaviorERKNS_7UsdPrimE(ptr noundef nonnull align 8 dereferenceable(73) %5, ptr noundef nonnull align 8 dereferenceable(32) %4)
          to label %10 unwind label %51

10:                                               ; preds = %_ZNK32pxrInternal_v0_24__pxrReserved__13UsdShadeInput7GetPrimEv.exit
  %11 = getelementptr inbounds nuw i8, ptr %4, i64 24
  %12 = load ptr, ptr %11, align 8
  %13 = ptrtoint ptr %12 to i64
  %14 = and i64 %13, 7
  %.not.i.i.i.i = icmp eq i64 %14, 0
  br i1 %.not.i.i.i.i, label %_ZN32pxrInternal_v0_24__pxrReserved__7TfTokenD2Ev.exit.i.i, label %15

15:                                               ; preds = %10
  %16 = and i64 %13, -8
  %17 = inttoptr i64 %16 to ptr
  %18 = atomicrmw sub ptr %17, i32 2 release, align 4
  br label %_ZN32pxrInternal_v0_24__pxrReserved__7TfTokenD2Ev.exit.i.i

_ZN32pxrInternal_v0_24__pxrReserved__7TfTokenD2Ev.exit.i.i: ; preds = %15, %10
  %19 = getelementptr inbounds nuw i8, ptr %4, i64 16
  %20 = load i32, ptr %19, align 8
  %.not.i.i1.i.i = icmp eq i32 %20, 0
  br i1 %.not.i.i1.i.i, label %_ZN32pxrInternal_v0_24__pxrReserved__7SdfPathD2Ev.exit.i.i, label %21

21:                                               ; preds = %_ZN32pxrInternal_v0_24__pxrReserved__7TfTokenD2Ev.exit.i.i
  %22 = and i32 %20, 255
  %23 = lshr i32 %20, 8
  %24 = zext nneg i32 %22 to i64
  %25 = getelementptr inbounds [257 x ptr], ptr @_ZN32pxrInternal_v0_24__pxrReserved__8Sdf_PoolINS_15Sdf_PathPrimTagELj24ELj8ELj16384EE13_regionStartsE, i64 0, i64 %24
  %26 = load ptr, ptr %25, align 8
  %27 = mul nuw nsw i32 %23, 24
  %28 = zext nneg i32 %27 to i64
  %29 = getelementptr inbounds i8, ptr %26, i64 %28
  %30 = getelementptr inbounds nuw i8, ptr %29, i64 8
  %31 = atomicrmw sub ptr %30, i32 1 seq_cst, align 4
  %32 = and i32 %31, 2147483647
  %33 = icmp eq i32 %32, 1
  br i1 %33, label %34, label %_ZN32pxrInternal_v0_24__pxrReserved__7SdfPathD2Ev.exit.i.i

34:                                               ; preds = %21
  invoke void @_ZNK32pxrInternal_v0_24__pxrReserved__12Sdf_PathNode8_DestroyEv(ptr noundef nonnull align 8 dereferenceable(16) %29)
          to label %_ZN32pxrInternal_v0_24__pxrReserved__7SdfPathD2Ev.exit.i.i unwind label %35

35:                                               ; preds = %34
  %36 = landingpad { ptr, i32 }
          catch ptr null
  %37 = extractvalue { ptr, i32 } %36, 0
  call void @__clang_call_terminate(ptr %37) #20
  unreachable

_ZN32pxrInternal_v0_24__pxrReserved__7SdfPathD2Ev.exit.i.i: ; preds = %34, %21, %_ZN32pxrInternal_v0_24__pxrReserved__7TfTokenD2Ev.exit.i.i
  %38 = getelementptr inbounds nuw i8, ptr %4, i64 8
  %39 = load ptr, ptr %38, align 8
  %.not.i.i.i.i.i = icmp eq ptr %39, null
  br i1 %.not.i.i.i.i.i, label %_ZN32pxrInternal_v0_24__pxrReserved__7UsdPrimD2Ev.exit, label %40

40:                                               ; preds = %_ZN32pxrInternal_v0_24__pxrReserved__7SdfPathD2Ev.exit.i.i
  %41 = getelementptr inbounds nuw i8, ptr %39, i64 48
  %42 = atomicrmw sub ptr %41, i64 1 release, align 8
  %.not1.i.i.i.i.i = icmp eq i64 %42, 1
  br i1 %.not1.i.i.i.i.i, label %43, label %_ZN32pxrInternal_v0_24__pxrReserved__7UsdPrimD2Ev.exit

43:                                               ; preds = %40
  call void @_ZN32pxrInternal_v0_24__pxrReserved__12Usd_PrimDataD1Ev(ptr noundef nonnull align 8 dereferenceable(64) %39) #18
  call void @_ZdlPvm(ptr noundef nonnull %39, i64 noundef 64) #19
  br label %_ZN32pxrInternal_v0_24__pxrReserved__7UsdPrimD2Ev.exit

_ZN32pxrInternal_v0_24__pxrReserved__7UsdPrimD2Ev.exit: ; preds = %_ZN32pxrInternal_v0_24__pxrReserved__7SdfPathD2Ev.exit.i.i, %40, %43
  %.not = icmp eq ptr %9, null
  br i1 %.not, label %53, label %44

44:                                               ; preds = %_ZN32pxrInternal_v0_24__pxrReserved__7UsdPrimD2Ev.exit
  %45 = load ptr, ptr %9, align 8
  %46 = getelementptr inbounds i8, ptr %45, i64 16
  %47 = load ptr, ptr %46, align 8
  %48 = invoke noundef zeroext i1 %47(ptr noundef nonnull align 8 dereferenceable(10) %9, ptr noundef nonnull align 8 dereferenceable(32) %0, ptr noundef nonnull align 8 dereferenceable(32) %1, ptr noundef nonnull %3)
          to label %53 unwind label %49

49:                                               ; preds = %6, %44, %2
  %50 = landingpad { ptr, i32 }
          cleanup
  br label %54

51:                                               ; preds = %_ZNK32pxrInternal_v0_24__pxrReserved__13UsdShadeInput7GetPrimEv.exit
  %52 = landingpad { ptr, i32 }
          cleanup
  call void @_ZN32pxrInternal_v0_24__pxrReserved__7UsdPrimD2Ev(ptr noundef nonnull align 8 dereferenceable(32) %4) #18
  br label %54

53:                                               ; preds = %_ZN32pxrInternal_v0_24__pxrReserved__7UsdPrimD2Ev.exit, %44
  %.08 = phi i1 [ %48, %44 ], [ false, %_ZN32pxrInternal_v0_24__pxrReserved__7UsdPrimD2Ev.exit ]
  call void @_ZNSt7__cxx1112basic_stringIcSt11char_traitsIcESaIcEED1Ev(ptr noundef nonnull align 8 dereferenceable(32) %3) #18
  ret i1 %.08

54:                                               ; preds = %51, %49
  %.pn = phi { ptr, i32 } [ %50, %49 ], [ %52, %51 ]
  call void @_ZNSt7__cxx1112basic_stringIcSt11char_traitsIcESaIcEED1Ev(ptr noundef nonnull align 8 dereferenceable(32) %3) #18
  resume { ptr, i32 } %.pn
}